Certificate:
    Data:
        Version: 3 (0x2)
        Serial Number:
            ba:a9:21:85:4f:8d:6d:05
        Signature Algorithm: sha1WithRSAEncryption
        Issuer: C=FR, ST=Paris, O=Nonutc, OU=Sysops, CN=smtp.nonutc.fr/emailAddress=sysops@nonutc.fr
        Validity
            Not Before: Jul 31 22:39:39 2008 GMT
            Not After : Jul 31 22:39:39 2011 GMT
        Subject: C=FR, ST=Paris, O=Nonutc, OU=Sysops, CN=smtp.nonutc.fr/emailAddress=sysops@nonutc.fr
        Subject Public Key Info:
            Public Key Algorithm: rsaEncryption
            RSA Public Key: (1024 bit)
                Modulus (1024 bit):
                    00:a6:24:a5:fa:41:04:81:24:d5:df:27:74:00:d0:
                    61:86:5d:3a:db:0e:b9:03:2e:75:85:0f:20:6b:c1:
                    d5:6d:1e:e7:b5:0c:ed:02:93:f1:ba:25:84:94:9e:
                    3c:23:1c:8f:eb:ed:33:86:2d:38:b4:fe:52:5d:84:
                    fe:ce:88:e2:18:97:84:d7:16:74:fd:17:3d:ea:ca:
                    d4:7f:68:23:ab:ab:35:15:62:b7:ee:ac:ce:eb:cc:
                    38:4b:fe:07:3b:0b:8f:92:b3:e5:33:ee:ae:14:9a:
                    f2:c2:5f:8d:1e:2b:61:73:da:13:2c:b2:b3:a5:71:
                    b6:aa:9d:13:f4:c2:c5:cd:0f
                Exponent: 65537 (0x10001)
        X509v3 extensions:
            X509v3 Subject Key Identifier: 
                BF:70:8C:AC:70:A9:5F:1E:67:93:B1:15:F6:B4:FF:46:C8:7E:EC:68
            X509v3 Authority Key Identifier: 
                keyid:BF:70:8C:AC:70:A9:5F:1E:67:93:B1:15:F6:B4:FF:46:C8:7E:EC:68
                DirName:/C=FR/ST=Paris/O=Nonutc/OU=Sysops/CN=smtp.nonutc.fr/emailAddress=sysops@nonutc.fr
                serial:BA:A9:21:85:4F:8D:6D:05

            X509v3 Basic Constraints: 
                CA:TRUE
    Signature Algorithm: sha1WithRSAEncryption
        48:e5:f5:2d:c2:d7:aa:eb:66:ab:e8:84:b0:bd:40:3b:90:04:
        7d:fb:2f:58:17:90:3c:1a:92:09:c9:02:5e:37:51:05:fd:84:
        1b:91:ff:6d:ee:65:1e:88:ca:b1:d2:43:28:3a:6b:72:8e:ce:
        c1:a0:f2:a4:02:31:3b:68:00:66:c0:1f:db:48:cd:51:a3:b6:
        6b:34:f7:79:b3:6d:e1:f1:8a:97:32:d1:cf:66:40:1a:45:5b:
        3e:70:ad:d2:06:30:25:16:0d:7f:4f:cb:31:2f:3d:6c:cf:62:
        5a:02:14:9e:91:1b:32:cb:6d:2e:d4:d2:6e:a0:2b:f0:26:60:
        2c:36
-----BEGIN CERTIFICATE-----
MIIDTzCCArigAwIBAgIJALqpIYVPjW0FMA0GCSqGSIb3DQEBBQUAMHkxCzAJBgNV
BAYTAkZSMQ4wDAYDVQQIEwVQYXJpczEPMA0GA1UEChMGTm9udXRjMQ8wDQYDVQQL
EwZTeXNvcHMxFzAVBgNVBAMTDnNtdHAubm9udXRjLmZyMR8wHQYJKoZIhvcNAQkB
FhBzeXNvcHNAbm9udXRjLmZyMB4XDTA4MDczMTIyMzkzOVoXDTExMDczMTIyMzkz
OVoweTELMAkGA1UEBhMCRlIxDjAMBgNVBAgTBVBhcmlzMQ8wDQYDVQQKEwZOb251
dGMxDzANBgNVBAsTBlN5c29wczEXMBUGA1UEAxMOc210cC5ub251dGMuZnIxHzAd
BgkqhkiG9w0BCQEWEHN5c29wc0Bub251dGMuZnIwgZ8wDQYJKoZIhvcNAQEBBQAD
gY0AMIGJAoGBAKYkpfpBBIEk1d8ndADQYYZdOtsOuQMudYUPIGvB1W0e57UM7QKT
8bolhJSePCMcj+vtM4YtOLT+Ul2E/s6I4hiXhNcWdP0XPerK1H9oI6urNRVit+6s
zuvMOEv+BzsLj5Kz5TPurhSa8sJfjR4rYXPaEyyys6VxtqqdE/TCxc0PAgMBAAGj
gd4wgdswHQYDVR0OBBYEFL9wjKxwqV8eZ5OxFfa0/0bIfuxoMIGrBgNVHSMEgaMw
gaCAFL9wjKxwqV8eZ5OxFfa0/0bIfuxooX2kezB5MQswCQYDVQQGEwJGUjEOMAwG
A1UECBMFUGFyaXMxDzANBgNVBAoTBk5vbnV0YzEPMA0GA1UECxMGU3lzb3BzMRcw
FQYDVQQDEw5zbXRwLm5vbnV0Yy5mcjEfMB0GCSqGSIb3DQEJARYQc3lzb3BzQG5v
bnV0Yy5mcoIJALqpIYVPjW0FMAwGA1UdEwQFMAMBAf8wDQYJKoZIhvcNAQEFBQAD
gYEASOX1LcLXqutmq+iEsL1AO5AEffsvWBeQPBqSCckCXjdRBf2EG5H/be5lHojK
sdJDKDprco7OwaDypAIxO2gAZsAf20jNUaO2azT3ebNt4fGKlzLRz2ZAGkVbPnCt
0gYwJRYNf0/LMS89bM9iWgIUnpEbMsttLtTSbqAr8CZgLDY=
-----END CERTIFICATE-----
