Certificate:
    Data:
        Version: 3 (0x2)
        Serial Number:
            ba:a9:21:85:4f:8d:6d:06
        Signature Algorithm: sha1WithRSAEncryption
        Issuer: C=FR, ST=Paris, O=Nonutc, OU=Sysops, CN=smtp.nonutc.fr/emailAddress=sysops@nonutc.fr
        Validity
            Not Before: Jul 31 22:40:30 2008 GMT
            Not After : Jul 31 22:40:30 2009 GMT
        Subject: C=FR, ST=Paris, O=Nonutc, OU=SysOps, CN=smtp.nonutc.fr/emailAddress=sysops@nonutc.fr
        Subject Public Key Info:
            Public Key Algorithm: rsaEncryption
            RSA Public Key: (1024 bit)
                Modulus (1024 bit):
                    00:eb:b0:02:c4:a0:eb:a3:3a:38:56:f6:6d:bb:4e:
                    4e:ac:27:e1:5e:f0:f1:07:87:7b:37:64:63:ed:60:
                    74:64:d2:ec:ac:0e:c7:58:46:2d:b7:3a:65:96:e6:
                    df:30:01:86:f4:1c:91:58:1d:b4:6e:0d:f6:09:6b:
                    a0:22:39:d0:d5:80:a2:ee:7d:92:d1:b9:e4:bf:aa:
                    e1:57:75:f5:c4:4d:9d:7f:a6:85:a9:f8:cb:15:ba:
                    b4:1c:db:77:46:c8:20:08:30:ea:29:4d:dd:81:4f:
                    ef:7b:3b:d0:dd:ec:dc:a8:49:93:02:d1:af:07:24:
                    c0:b8:3d:9e:3e:25:58:a3:e3
                Exponent: 65537 (0x10001)
        X509v3 extensions:
            X509v3 Basic Constraints: 
                CA:FALSE
            Netscape Comment: 
                OpenSSL Generated Certificate
            X509v3 Subject Key Identifier: 
                DB:65:19:D9:F1:5B:6B:16:FF:21:AF:BE:9D:67:0A:BB:6B:8C:9A:B2
            X509v3 Authority Key Identifier: 
                keyid:BF:70:8C:AC:70:A9:5F:1E:67:93:B1:15:F6:B4:FF:46:C8:7E:EC:68

    Signature Algorithm: sha1WithRSAEncryption
        3e:48:2e:d5:e4:9e:c2:b4:ab:2b:ce:3f:7b:77:6a:dc:a6:0c:
        60:36:ed:38:45:d4:a4:c9:13:1f:e7:70:5c:a0:06:96:0f:74:
        36:81:61:59:a1:30:0f:67:35:c4:c0:3a:a2:8a:0a:4a:86:e0:
        ed:21:1a:0d:99:e9:cd:0a:45:af:a1:d9:77:0b:0a:5d:4e:0f:
        d3:1a:0a:b6:64:2c:09:b6:a6:92:41:ee:1a:73:05:02:7b:e5:
        d2:d1:06:15:f7:62:87:2b:62:d8:f4:34:30:57:a9:71:4d:20:
        93:3c:ee:c8:ec:1a:02:a6:d2:df:81:d9:21:75:3f:61:60:95:
        b2:cc
-----BEGIN CERTIFICATE-----
MIIC6zCCAlSgAwIBAgIJALqpIYVPjW0GMA0GCSqGSIb3DQEBBQUAMHkxCzAJBgNV
BAYTAkZSMQ4wDAYDVQQIEwVQYXJpczEPMA0GA1UEChMGTm9udXRjMQ8wDQYDVQQL
EwZTeXNvcHMxFzAVBgNVBAMTDnNtdHAubm9udXRjLmZyMR8wHQYJKoZIhvcNAQkB
FhBzeXNvcHNAbm9udXRjLmZyMB4XDTA4MDczMTIyNDAzMFoXDTA5MDczMTIyNDAz
MFoweTELMAkGA1UEBhMCRlIxDjAMBgNVBAgTBVBhcmlzMQ8wDQYDVQQKEwZOb251
dGMxDzANBgNVBAsTBlN5c09wczEXMBUGA1UEAxMOc210cC5ub251dGMuZnIxHzAd
BgkqhkiG9w0BCQEWEHN5c29wc0Bub251dGMuZnIwgZ8wDQYJKoZIhvcNAQEBBQAD
gY0AMIGJAoGBAOuwAsSg66M6OFb2bbtOTqwn4V7w8QeHezdkY+1gdGTS7KwOx1hG
Lbc6ZZbm3zABhvQckVgdtG4N9glroCI50NWAou59ktG55L+q4Vd19cRNnX+mhan4
yxW6tBzbd0bIIAgw6ilN3YFP73s70N3s3KhJkwLRrwckwLg9nj4lWKPjAgMBAAGj
ezB5MAkGA1UdEwQCMAAwLAYJYIZIAYb4QgENBB8WHU9wZW5TU0wgR2VuZXJhdGVk
IENlcnRpZmljYXRlMB0GA1UdDgQWBBTbZRnZ8VtrFv8hr76dZwq7a4yasjAfBgNV
HSMEGDAWgBS/cIyscKlfHmeTsRX2tP9GyH7saDANBgkqhkiG9w0BAQUFAAOBgQA+
SC7V5J7CtKsrzj97d2rcpgxgNu04RdSkyRMf53BcoAaWD3Q2gWFZoTAPZzXEwDqi
igpKhuDtIRoNmenNCkWvodl3CwpdTg/TGgq2ZCwJtqaSQe4acwUCe+XS0QYV92KH
K2LY9DQwV6lxTSCTPO7I7BoCptLfgdkhdT9hYJWyzA==
-----END CERTIFICATE-----
